target datalayout = "e-m:e-p270:32:32-p271:32:32-p272:64:64-i64:64-i128:128-f80:128-n8:16:32:64-S128"
target triple = "x86_64-pc-linux-gnu"

%struct.Vec_Int_t_ = type { i32, i32, ptr }
%struct.Vec_Wec_t_ = type { i32, i32, ptr }

; Function Attrs: inlinehint nounwind uwtable
define internal void @Vec_IntGrow(ptr noundef %0, i32 noundef %1) #2 {
  %3 = alloca ptr, align 8
  %4 = alloca i32, align 4
  store ptr %0, ptr %3, align 8, !tbaa !25
  store i32 %1, ptr %4, align 4, !tbaa !17
  %5 = load ptr, ptr %3, align 8, !tbaa !25
  %6 = getelementptr inbounds nuw %struct.Vec_Int_t_, ptr %5, i32 0, i32 0
  %7 = load i32, ptr %6, align 8, !tbaa !36
  %8 = load i32, ptr %4, align 4, !tbaa !17
  %9 = icmp sge i32 %7, %8
  br i1 %9, label %10, label %11

10:                                               ; preds = %2
  br label %36

11:                                               ; preds = %2
  %12 = load ptr, ptr %3, align 8, !tbaa !25
  %13 = getelementptr inbounds nuw %struct.Vec_Int_t_, ptr %12, i32 0, i32 2
  %14 = load ptr, ptr %13, align 8, !tbaa !29
  %15 = icmp ne ptr %14, null
  br i1 %15, label %16, label %24

16:                                               ; preds = %11
  %17 = load ptr, ptr %3, align 8, !tbaa !25
  %18 = getelementptr inbounds nuw %struct.Vec_Int_t_, ptr %17, i32 0, i32 2
  %19 = load ptr, ptr %18, align 8, !tbaa !29
  %20 = load i32, ptr %4, align 4, !tbaa !17
  %21 = sext i32 %20 to i64
  %22 = mul i64 4, %21
  %23 = call ptr @realloc(ptr noundef %19, i64 noundef %22) #15
  br label %29

24:                                               ; preds = %11
  %25 = load i32, ptr %4, align 4, !tbaa !17
  %26 = sext i32 %25 to i64
  %27 = mul i64 4, %26
  %28 = call noalias ptr @malloc(i64 noundef %27) #12
  br label %29

29:                                               ; preds = %24, %16
  %30 = phi ptr [ %23, %16 ], [ %28, %24 ]
  %31 = load ptr, ptr %3, align 8, !tbaa !25
  %32 = getelementptr inbounds nuw %struct.Vec_Int_t_, ptr %31, i32 0, i32 2
  store ptr %30, ptr %32, align 8, !tbaa !29
  %33 = load i32, ptr %4, align 4, !tbaa !17
  %34 = load ptr, ptr %3, align 8, !tbaa !25
  %35 = getelementptr inbounds nuw %struct.Vec_Int_t_, ptr %34, i32 0, i32 0
  store i32 %33, ptr %35, align 8, !tbaa !36
  br label %36

36:                                               ; preds = %29, %10
  ret void
}

; Function Attrs: inlinehint nounwind uwtable
define internal void @Vec_IntPush(ptr noundef %0, i32 noundef %1) #2 {
  %3 = alloca ptr, align 8
  %4 = alloca i32, align 4
  store ptr %0, ptr %3, align 8, !tbaa !25
  store i32 %1, ptr %4, align 4, !tbaa !17
  %5 = load ptr, ptr %3, align 8, !tbaa !25
  %6 = getelementptr inbounds nuw %struct.Vec_Int_t_, ptr %5, i32 0, i32 1
  %7 = load i32, ptr %6, align 4, !tbaa !35
  %8 = load ptr, ptr %3, align 8, !tbaa !25
  %9 = getelementptr inbounds nuw %struct.Vec_Int_t_, ptr %8, i32 0, i32 0
  %10 = load i32, ptr %9, align 8, !tbaa !36
  %11 = icmp eq i32 %7, %10
  br i1 %11, label %12, label %26

12:                                               ; preds = %2
  %13 = load ptr, ptr %3, align 8, !tbaa !25
  %14 = getelementptr inbounds nuw %struct.Vec_Int_t_, ptr %13, i32 0, i32 0
  %15 = load i32, ptr %14, align 8, !tbaa !36
  %16 = icmp slt i32 %15, 16
  br i1 %16, label %17, label %19

17:                                               ; preds = %12
  %18 = load ptr, ptr %3, align 8, !tbaa !25
  call void @Vec_IntGrow(ptr noundef %18, i32 noundef 16)
  br label %25

19:                                               ; preds = %12
  %20 = load ptr, ptr %3, align 8, !tbaa !25
  %21 = load ptr, ptr %3, align 8, !tbaa !25
  %22 = getelementptr inbounds nuw %struct.Vec_Int_t_, ptr %21, i32 0, i32 0
  %23 = load i32, ptr %22, align 8, !tbaa !36
  %24 = mul nsw i32 2, %23
  call void @Vec_IntGrow(ptr noundef %20, i32 noundef %24)
  br label %25

25:                                               ; preds = %19, %17
  br label %26

26:                                               ; preds = %25, %2
  %27 = load i32, ptr %4, align 4, !tbaa !17
  %28 = load ptr, ptr %3, align 8, !tbaa !25
  %29 = getelementptr inbounds nuw %struct.Vec_Int_t_, ptr %28, i32 0, i32 2
  %30 = load ptr, ptr %29, align 8, !tbaa !29
  %31 = load ptr, ptr %3, align 8, !tbaa !25
  %32 = getelementptr inbounds nuw %struct.Vec_Int_t_, ptr %31, i32 0, i32 1
  %33 = load i32, ptr %32, align 4, !tbaa !35
  %34 = add nsw i32 %33, 1
  store i32 %34, ptr %32, align 4, !tbaa !35
  %35 = sext i32 %33 to i64
  %36 = getelementptr inbounds i32, ptr %30, i64 %35
  store i32 %27, ptr %36, align 4, !tbaa !17
  ret void
}

; Function Attrs: inlinehint nounwind uwtable
define internal i32 @Abc_Lit2Var(i32 noundef %0) #2 {
  %2 = alloca i32, align 4
  store i32 %0, ptr %2, align 4, !tbaa !17
  %3 = load i32, ptr %2, align 4, !tbaa !17
  %4 = ashr i32 %3, 1
  ret i32 %4
}

; Function Attrs: inlinehint nounwind uwtable
define internal i32 @Vec_IntSize(ptr noundef %0) #2 {
  %2 = alloca ptr, align 8
  store ptr %0, ptr %2, align 8, !tbaa !25
  %3 = load ptr, ptr %2, align 8, !tbaa !25
  %4 = getelementptr inbounds nuw %struct.Vec_Int_t_, ptr %3, i32 0, i32 1
  %5 = load i32, ptr %4, align 4, !tbaa !35
  ret i32 %5
}

; Function Attrs: inlinehint nounwind uwtable
define internal ptr @Vec_WecEntry(ptr noundef %0, i32 noundef %1) #2 {
  %3 = alloca ptr, align 8
  %4 = alloca i32, align 4
  store ptr %0, ptr %3, align 8, !tbaa !79
  store i32 %1, ptr %4, align 4, !tbaa !17
  %5 = load ptr, ptr %3, align 8, !tbaa !79
  %6 = getelementptr inbounds nuw %struct.Vec_Wec_t_, ptr %5, i32 0, i32 2
  %7 = load ptr, ptr %6, align 8, !tbaa !87
  %8 = load i32, ptr %4, align 4, !tbaa !17
  %9 = sext i32 %8 to i64
  %10 = getelementptr inbounds %struct.Vec_Int_t_, ptr %7, i64 %9
  ret ptr %10
}

; Function Attrs: inlinehint nounwind uwtable
define internal void @Vec_IntWriteEntry(ptr noundef %0, i32 noundef %1, i32 noundef %2) #2 {
  %4 = alloca ptr, align 8
  %5 = alloca i32, align 4
  %6 = alloca i32, align 4
  store ptr %0, ptr %4, align 8, !tbaa !25
  store i32 %1, ptr %5, align 4, !tbaa !17
  store i32 %2, ptr %6, align 4, !tbaa !17
  %7 = load i32, ptr %6, align 4, !tbaa !17
  %8 = load ptr, ptr %4, align 8, !tbaa !25
  %9 = getelementptr inbounds nuw %struct.Vec_Int_t_, ptr %8, i32 0, i32 2
  %10 = load ptr, ptr %9, align 8, !tbaa !29
  %11 = load i32, ptr %5, align 4, !tbaa !17
  %12 = sext i32 %11 to i64
  %13 = getelementptr inbounds i32, ptr %10, i64 %12
  store i32 %7, ptr %13, align 4, !tbaa !17
  ret void
}

; Function Attrs: inlinehint nounwind uwtable
define internal i32 @Vec_IntEntry(ptr noundef %0, i32 noundef %1) #2 {
  %3 = alloca ptr, align 8
  %4 = alloca i32, align 4
  store ptr %0, ptr %3, align 8, !tbaa !25
  store i32 %1, ptr %4, align 4, !tbaa !17
  %5 = load ptr, ptr %3, align 8, !tbaa !25
  %6 = getelementptr inbounds nuw %struct.Vec_Int_t_, ptr %5, i32 0, i32 2
  %7 = load ptr, ptr %6, align 8, !tbaa !29
  %8 = load i32, ptr %4, align 4, !tbaa !17
  %9 = sext i32 %8 to i64
  %10 = getelementptr inbounds i32, ptr %7, i64 %9
  %11 = load i32, ptr %10, align 4, !tbaa !17
  ret i32 %11
}

; Function Attrs: nounwind uwtable
define void @Gia_ManFxTopoOrder_rec(ptr noundef %0, ptr noundef %1, ptr noundef %2, ptr noundef %3, ptr noundef %4, i32 noundef %5) #0 {
  %7 = alloca ptr, align 8
  %8 = alloca ptr, align 8
  %9 = alloca ptr, align 8
  %10 = alloca ptr, align 8
  %11 = alloca ptr, align 8
  %12 = alloca i32, align 4
  %13 = alloca i32, align 4
  %14 = alloca i32, align 4
  %15 = alloca i32, align 4
  %16 = alloca i32, align 4
  %17 = alloca i32, align 4
  %18 = alloca ptr, align 8
  store ptr %0, ptr %7, align 8, !tbaa !79
  store ptr %1, ptr %8, align 8, !tbaa !25
  store ptr %2, ptr %9, align 8, !tbaa !25
  store ptr %3, ptr %10, align 8, !tbaa !25
  store ptr %4, ptr %11, align 8, !tbaa !25
  store i32 %5, ptr %12, align 4, !tbaa !17
  call void @llvm.lifetime.start.p0(i64 4, ptr %13) #11
  call void @llvm.lifetime.start.p0(i64 4, ptr %14) #11
  call void @llvm.lifetime.start.p0(i64 4, ptr %15) #11
  call void @llvm.lifetime.start.p0(i64 4, ptr %16) #11
  %19 = load ptr, ptr %8, align 8, !tbaa !25
  %20 = load i32, ptr %12, align 4, !tbaa !17
  %21 = call i32 @Vec_IntEntry(ptr noundef %19, i32 noundef %20)
  store i32 %21, ptr %16, align 4, !tbaa !17
  call void @llvm.lifetime.start.p0(i64 4, ptr %17) #11
  %22 = load ptr, ptr %9, align 8, !tbaa !25
  %23 = load i32, ptr %12, align 4, !tbaa !17
  %24 = call i32 @Vec_IntEntry(ptr noundef %22, i32 noundef %23)
  store i32 %24, ptr %17, align 4, !tbaa !17
  %25 = load ptr, ptr %10, align 8, !tbaa !25
  %26 = load i32, ptr %12, align 4, !tbaa !17
  call void @Vec_IntWriteEntry(ptr noundef %25, i32 noundef %26, i32 noundef 1)
  store i32 0, ptr %13, align 4, !tbaa !17
  br label %27

27:                                               ; preds = %67, %6
  %28 = load i32, ptr %13, align 4, !tbaa !17
  %29 = load i32, ptr %17, align 4, !tbaa !17
  %30 = icmp slt i32 %28, %29
  br i1 %30, label %31, label %70

31:                                               ; preds = %27
  call void @llvm.lifetime.start.p0(i64 8, ptr %18) #11
  %32 = load ptr, ptr %7, align 8, !tbaa !79
  %33 = load i32, ptr %16, align 4, !tbaa !17
  %34 = load i32, ptr %13, align 4, !tbaa !17
  %35 = add nsw i32 %33, %34
  %36 = call ptr @Vec_WecEntry(ptr noundef %32, i32 noundef %35)
  store ptr %36, ptr %18, align 8, !tbaa !25
  store i32 1, ptr %14, align 4, !tbaa !17
  br label %37

37:                                               ; preds = %63, %31
  %38 = load i32, ptr %14, align 4, !tbaa !17
  %39 = load ptr, ptr %18, align 8, !tbaa !25
  %40 = call i32 @Vec_IntSize(ptr noundef %39)
  %41 = icmp slt i32 %38, %40
  br i1 %41, label %42, label %46

42:                                               ; preds = %37
  %43 = load ptr, ptr %18, align 8, !tbaa !25
  %44 = load i32, ptr %14, align 4, !tbaa !17
  %45 = call i32 @Vec_IntEntry(ptr noundef %43, i32 noundef %44)
  store i32 %45, ptr %15, align 4, !tbaa !17
  br label %46

46:                                               ; preds = %42, %37
  %47 = phi i1 [ false, %37 ], [ true, %42 ]
  br i1 %47, label %48, label %66

48:                                               ; preds = %46
  %49 = load ptr, ptr %10, align 8, !tbaa !25
  %50 = load i32, ptr %15, align 4, !tbaa !17
  %51 = call i32 @Abc_Lit2Var(i32 noundef %50)
  %52 = call i32 @Vec_IntEntry(ptr noundef %49, i32 noundef %51)
  %53 = icmp ne i32 %52, 0
  br i1 %53, label %62, label %54

54:                                               ; preds = %48
  %55 = load ptr, ptr %7, align 8, !tbaa !79
  %56 = load ptr, ptr %8, align 8, !tbaa !25
  %57 = load ptr, ptr %9, align 8, !tbaa !25
  %58 = load ptr, ptr %10, align 8, !tbaa !25
  %59 = load ptr, ptr %11, align 8, !tbaa !25
  %60 = load i32, ptr %15, align 4, !tbaa !17
  %61 = call i32 @Abc_Lit2Var(i32 noundef %60)
  call void @Gia_ManFxTopoOrder_rec(ptr noundef %55, ptr noundef %56, ptr noundef %57, ptr noundef %58, ptr noundef %59, i32 noundef %61)
  br label %62

62:                                               ; preds = %54, %48
  br label %63

63:                                               ; preds = %62
  %64 = load i32, ptr %14, align 4, !tbaa !17
  %65 = add nsw i32 %64, 1
  store i32 %65, ptr %14, align 4, !tbaa !17
  br label %37, !llvm.loop !91

66:                                               ; preds = %46
  call void @llvm.lifetime.end.p0(i64 8, ptr %18) #11
  br label %67

67:                                               ; preds = %66
  %68 = load i32, ptr %13, align 4, !tbaa !17
  %69 = add nsw i32 %68, 1
  store i32 %69, ptr %13, align 4, !tbaa !17
  br label %27, !llvm.loop !92

70:                                               ; preds = %27
  %71 = load ptr, ptr %11, align 8, !tbaa !25
  %72 = load i32, ptr %12, align 4, !tbaa !17
  call void @Vec_IntPush(ptr noundef %71, i32 noundef %72)
  call void @llvm.lifetime.end.p0(i64 4, ptr %17) #11
  call void @llvm.lifetime.end.p0(i64 4, ptr %16) #11
  call void @llvm.lifetime.end.p0(i64 4, ptr %15) #11
  call void @llvm.lifetime.end.p0(i64 4, ptr %14) #11
  call void @llvm.lifetime.end.p0(i64 4, ptr %13) #11
  ret void
}