; Function Attrs: nounwind uwtable
define void @Gia_ManFxTopoOrder_rec(ptr noundef readonly captures(none) %0, ptr noundef readonly captures(none) %1, ptr noundef readonly captures(none) %2, ptr noundef readonly captures(none) %3, ptr noundef captures(none) %4, i32 noundef %5) local_unnamed_addr #0 {
  %7 = getelementptr i8, ptr %1, i64 8
  %.val29 = load ptr, ptr %7, align 8, !tbaa !17
  %8 = sext i32 %5 to i64
  %9 = getelementptr inbounds i32, ptr %.val29, i64 %8
  %10 = load i32, ptr %9, align 4, !tbaa !20
  %11 = getelementptr i8, ptr %2, i64 8
  %.val28 = load ptr, ptr %11, align 8, !tbaa !17
  %12 = getelementptr inbounds i32, ptr %.val28, i64 %8
  %13 = load i32, ptr %12, align 4, !tbaa !20
  %14 = getelementptr i8, ptr %3, i64 8
  %.val30 = load ptr, ptr %14, align 8, !tbaa !17
  %15 = getelementptr inbounds i32, ptr %.val30, i64 %8
  store i32 1, ptr %15, align 4, !tbaa !20
  %16 = icmp sgt i32 %13, 0
  br i1 %16, label %.lr.ph36, label %._crit_edge

.lr.ph36:                                         ; preds = %6
  %17 = getelementptr i8, ptr %0, i64 8
  %18 = sext i32 %10 to i64
  %wide.trip.count = zext nneg i32 %13 to i64
  br label %19

19:                                               ; preds = %.lr.ph36, %.critedge
  %indvars.iv38 = phi i64 [ 0, %.lr.ph36 ], [ %indvars.iv.next39, %.critedge ]
  %.val32 = load ptr, ptr %17, align 8, !tbaa !70
  %20 = getelementptr %struct.Vec_Int_t_, ptr %.val32, i64 %indvars.iv38
  %21 = getelementptr %struct.Vec_Int_t_, ptr %20, i64 %18
  %22 = getelementptr i8, ptr %21, i64 4
  %.val3133 = load i32, ptr %22, align 4, !tbaa !49
  %23 = icmp sgt i32 %.val3133, 1
  br i1 %23, label %.lr.ph, label %.critedge

.lr.ph:                                           ; preds = %19
  %24 = getelementptr i8, ptr %21, i64 8
  br label %25

25:                                               ; preds = %.lr.ph, %33
  %.val3141 = phi i32 [ %.val3133, %.lr.ph ], [ %.val31, %33 ]
  %indvars.iv = phi i64 [ 1, %.lr.ph ], [ %indvars.iv.next, %33 ]
  %.val27 = load ptr, ptr %24, align 8, !tbaa !17
  %26 = getelementptr inbounds nuw i32, ptr %.val27, i64 %indvars.iv
  %27 = load i32, ptr %26, align 4, !tbaa !20
  %28 = ashr i32 %27, 1
  %.val = load ptr, ptr %14, align 8, !tbaa !17
  %29 = sext i32 %28 to i64
  %30 = getelementptr inbounds i32, ptr %.val, i64 %29
  %31 = load i32, ptr %30, align 4, !tbaa !20
  %.not = icmp eq i32 %31, 0
  br i1 %.not, label %32, label %33

32:                                               ; preds = %25
  tail call void @Gia_ManFxTopoOrder_rec(ptr noundef %0, ptr noundef %1, ptr noundef %2, ptr noundef nonnull %3, ptr noundef %4, i32 noundef %28)
  %.val31.pre = load i32, ptr %22, align 4, !tbaa !49
  br label %33

33:                                               ; preds = %25, %32
  %.val31 = phi i32 [ %.val3141, %25 ], [ %.val31.pre, %32 ]
  %indvars.iv.next = add nuw nsw i64 %indvars.iv, 1
  %34 = sext i32 %.val31 to i64
  %35 = icmp slt i64 %indvars.iv.next, %34
  br i1 %35, label %25, label %.critedge, !llvm.loop !79

.critedge:                                        ; preds = %33, %19
  %indvars.iv.next39 = add nuw nsw i64 %indvars.iv38, 1
  %exitcond.not = icmp eq i64 %indvars.iv.next39, %wide.trip.count
  br i1 %exitcond.not, label %._crit_edge, label %19, !llvm.loop !80

._crit_edge:                                      ; preds = %.critedge, %6
  %36 = getelementptr inbounds nuw i8, ptr %4, i64 4
  %37 = load i32, ptr %36, align 4, !tbaa !49
  %38 = load i32, ptr %4, align 8, !tbaa !50
  %39 = icmp eq i32 %37, %38
  br i1 %39, label %40, label %.Vec_IntGrow.exit10_crit_edge.i

.Vec_IntGrow.exit10_crit_edge.i:                  ; preds = %._crit_edge
  %.phi.trans.insert.i = getelementptr inbounds nuw i8, ptr %4, i64 8
  %.pre.i = load ptr, ptr %.phi.trans.insert.i, align 8, !tbaa !17
  br label %Vec_IntPush.exit

40:                                               ; preds = %._crit_edge
  %41 = icmp slt i32 %37, 16
  br i1 %41, label %42, label %50

42:                                               ; preds = %40
  %43 = getelementptr inbounds nuw i8, ptr %4, i64 8
  %44 = load ptr, ptr %43, align 8, !tbaa !17
  %.not9.i.i = icmp eq ptr %44, null
  br i1 %.not9.i.i, label %47, label %45

45:                                               ; preds = %42
  %46 = tail call dereferenceable_or_null(64) ptr @realloc(ptr noundef nonnull %44, i64 noundef 64) #20
  br label %Vec_IntGrow.exit.i

47:                                               ; preds = %42
  %48 = tail call noalias dereferenceable_or_null(64) ptr @malloc(i64 noundef 64) #19
  br label %Vec_IntGrow.exit.i

Vec_IntGrow.exit.i:                               ; preds = %47, %45
  %49 = phi ptr [ %46, %45 ], [ %48, %47 ]
  store ptr %49, ptr %43, align 8, !tbaa !17
  store i32 16, ptr %4, align 8, !tbaa !50
  br label %Vec_IntPush.exit

50:                                               ; preds = %40
  %51 = shl nuw nsw i32 %37, 1
  %52 = getelementptr inbounds nuw i8, ptr %4, i64 8
  %53 = load ptr, ptr %52, align 8, !tbaa !17
  %.not9.i9.i = icmp eq ptr %53, null
  %54 = zext nneg i32 %51 to i64
  %55 = shl nuw nsw i64 %54, 2
  br i1 %.not9.i9.i, label %58, label %56

56:                                               ; preds = %50
  %57 = tail call ptr @realloc(ptr noundef nonnull %53, i64 noundef %55) #20
  br label %60

58:                                               ; preds = %50
  %59 = tail call noalias ptr @malloc(i64 noundef %55) #19
  br label %60

60:                                               ; preds = %58, %56
  %61 = phi ptr [ %57, %56 ], [ %59, %58 ]
  store ptr %61, ptr %52, align 8, !tbaa !17
  store i32 %51, ptr %4, align 8, !tbaa !50
  br label %Vec_IntPush.exit

Vec_IntPush.exit:                                 ; preds = %.Vec_IntGrow.exit10_crit_edge.i, %Vec_IntGrow.exit.i, %60
  %62 = phi ptr [ %.pre.i, %.Vec_IntGrow.exit10_crit_edge.i ], [ %61, %60 ], [ %49, %Vec_IntGrow.exit.i ]
  %63 = load i32, ptr %36, align 4, !tbaa !49
  %64 = add nsw i32 %63, 1
  store i32 %64, ptr %36, align 4, !tbaa !49
  %65 = sext i32 %63 to i64
  %66 = getelementptr inbounds i32, ptr %62, i64 %65
  store i32 %5, ptr %66, align 4, !tbaa !20
  ret void
}